
build/hello_world:     file format elf64-littleriscv


Disassembly of section .text:

0000000080400000 <_start>:
    80400000:	050000ef          	jal	ra,80400050 <start>

0000000080400004 <clear_bss>:
    80400004:	1141                	addi	sp,sp,-16
    80400006:	e422                	sd	s0,8(sp)
    80400008:	0800                	addi	s0,sp,16
    8040000a:	00000717          	auipc	a4,0x0
    8040000e:	56c70713          	addi	a4,a4,1388 # 80400576 <end_bss>
    80400012:	00000797          	auipc	a5,0x0
    80400016:	56478793          	addi	a5,a5,1380 # 80400576 <end_bss>
    8040001a:	00f77c63          	bgeu	a4,a5,80400032 <clear_bss+0x2e>
    8040001e:	87ba                	mv	a5,a4
    80400020:	00000717          	auipc	a4,0x0
    80400024:	55670713          	addi	a4,a4,1366 # 80400576 <end_bss>
    80400028:	00078023          	sb	zero,0(a5)
    8040002c:	0785                	addi	a5,a5,1
    8040002e:	fee79de3          	bne	a5,a4,80400028 <clear_bss+0x24>
    80400032:	6422                	ld	s0,8(sp)
    80400034:	0141                	addi	sp,sp,16
    80400036:	8082                	ret

0000000080400038 <exit>:
    80400038:	1141                	addi	sp,sp,-16
    8040003a:	e406                	sd	ra,8(sp)
    8040003c:	e022                	sd	s0,0(sp)
    8040003e:	0800                	addi	s0,sp,16
    80400040:	00000097          	auipc	ra,0x0
    80400044:	3ce080e7          	jalr	974(ra) # 8040040e <sys_exit>
    80400048:	60a2                	ld	ra,8(sp)
    8040004a:	6402                	ld	s0,0(sp)
    8040004c:	0141                	addi	sp,sp,16
    8040004e:	8082                	ret

0000000080400050 <start>:
    80400050:	1141                	addi	sp,sp,-16
    80400052:	e406                	sd	ra,8(sp)
    80400054:	e022                	sd	s0,0(sp)
    80400056:	0800                	addi	s0,sp,16
    80400058:	00000597          	auipc	a1,0x0
    8040005c:	3e258593          	addi	a1,a1,994 # 8040043a <main>
    80400060:	00000517          	auipc	a0,0x0
    80400064:	41850513          	addi	a0,a0,1048 # 80400478 <main+0x3e>
    80400068:	00000097          	auipc	ra,0x0
    8040006c:	326080e7          	jalr	806(ra) # 8040038e <printf>
    80400070:	00000517          	auipc	a0,0x0
    80400074:	42850513          	addi	a0,a0,1064 # 80400498 <main+0x5e>
    80400078:	00000097          	auipc	ra,0x0
    8040007c:	316080e7          	jalr	790(ra) # 8040038e <printf>
    80400080:	00000097          	auipc	ra,0x0
    80400084:	f84080e7          	jalr	-124(ra) # 80400004 <clear_bss>
    80400088:	00000097          	auipc	ra,0x0
    8040008c:	3b2080e7          	jalr	946(ra) # 8040043a <main>
    80400090:	00000097          	auipc	ra,0x0
    80400094:	fa8080e7          	jalr	-88(ra) # 80400038 <exit>
    80400098:	60a2                	ld	ra,8(sp)
    8040009a:	6402                	ld	s0,0(sp)
    8040009c:	0141                	addi	sp,sp,16
    8040009e:	8082                	ret

00000000804000a0 <strlen>:
    804000a0:	1141                	addi	sp,sp,-16
    804000a2:	e422                	sd	s0,8(sp)
    804000a4:	0800                	addi	s0,sp,16
    804000a6:	00054783          	lbu	a5,0(a0)
    804000aa:	cf81                	beqz	a5,804000c2 <strlen+0x22>
    804000ac:	872a                	mv	a4,a0
    804000ae:	4501                	li	a0,0
    804000b0:	0505                	addi	a0,a0,1
    804000b2:	00a707b3          	add	a5,a4,a0
    804000b6:	0007c783          	lbu	a5,0(a5)
    804000ba:	fbfd                	bnez	a5,804000b0 <strlen+0x10>
    804000bc:	6422                	ld	s0,8(sp)
    804000be:	0141                	addi	sp,sp,16
    804000c0:	8082                	ret
    804000c2:	4501                	li	a0,0
    804000c4:	bfe5                	j	804000bc <strlen+0x1c>

00000000804000c6 <puts>:
    804000c6:	1101                	addi	sp,sp,-32
    804000c8:	ec06                	sd	ra,24(sp)
    804000ca:	e822                	sd	s0,16(sp)
    804000cc:	e426                	sd	s1,8(sp)
    804000ce:	1000                	addi	s0,sp,32
    804000d0:	84aa                	mv	s1,a0
    804000d2:	00000097          	auipc	ra,0x0
    804000d6:	fce080e7          	jalr	-50(ra) # 804000a0 <strlen>
    804000da:	862a                	mv	a2,a0
    804000dc:	85a6                	mv	a1,s1
    804000de:	4505                	li	a0,1
    804000e0:	00000097          	auipc	ra,0x0
    804000e4:	300080e7          	jalr	768(ra) # 804003e0 <sys_write>
    804000e8:	60e2                	ld	ra,24(sp)
    804000ea:	6442                	ld	s0,16(sp)
    804000ec:	64a2                	ld	s1,8(sp)
    804000ee:	6105                	addi	sp,sp,32
    804000f0:	8082                	ret

00000000804000f2 <panic>:
    804000f2:	1101                	addi	sp,sp,-32
    804000f4:	ec06                	sd	ra,24(sp)
    804000f6:	e822                	sd	s0,16(sp)
    804000f8:	e426                	sd	s1,8(sp)
    804000fa:	1000                	addi	s0,sp,32
    804000fc:	84aa                	mv	s1,a0
    804000fe:	00000517          	auipc	a0,0x0
    80400102:	3b250513          	addi	a0,a0,946 # 804004b0 <main+0x76>
    80400106:	00000097          	auipc	ra,0x0
    8040010a:	fc0080e7          	jalr	-64(ra) # 804000c6 <puts>
    8040010e:	8526                	mv	a0,s1
    80400110:	00000097          	auipc	ra,0x0
    80400114:	fb6080e7          	jalr	-74(ra) # 804000c6 <puts>
    80400118:	00000517          	auipc	a0,0x0
    8040011c:	3a050513          	addi	a0,a0,928 # 804004b8 <main+0x7e>
    80400120:	00000097          	auipc	ra,0x0
    80400124:	fa6080e7          	jalr	-90(ra) # 804000c6 <puts>
    80400128:	a001                	j	80400128 <panic+0x36>

000000008040012a <putc>:
    8040012a:	1101                	addi	sp,sp,-32
    8040012c:	ec06                	sd	ra,24(sp)
    8040012e:	e822                	sd	s0,16(sp)
    80400130:	1000                	addi	s0,sp,32
    80400132:	fea40423          	sb	a0,-24(s0)
    80400136:	fe840513          	addi	a0,s0,-24
    8040013a:	00000097          	auipc	ra,0x0
    8040013e:	f8c080e7          	jalr	-116(ra) # 804000c6 <puts>
    80400142:	60e2                	ld	ra,24(sp)
    80400144:	6442                	ld	s0,16(sp)
    80400146:	6105                	addi	sp,sp,32
    80400148:	8082                	ret

000000008040014a <printint>:
    8040014a:	7179                	addi	sp,sp,-48
    8040014c:	f406                	sd	ra,40(sp)
    8040014e:	f022                	sd	s0,32(sp)
    80400150:	ec26                	sd	s1,24(sp)
    80400152:	e84a                	sd	s2,16(sp)
    80400154:	1800                	addi	s0,sp,48
    80400156:	c609                	beqz	a2,80400160 <printint+0x16>
    80400158:	40a0073b          	negw	a4,a0
    8040015c:	00054463          	bltz	a0,80400164 <printint+0x1a>
    80400160:	0005071b          	sext.w	a4,a0
    80400164:	fd040613          	addi	a2,s0,-48
    80400168:	4681                	li	a3,0
    8040016a:	2581                	sext.w	a1,a1
    8040016c:	00000817          	auipc	a6,0x0
    80400170:	3cc80813          	addi	a6,a6,972 # 80400538 <digits>
    80400174:	88b6                	mv	a7,a3
    80400176:	2685                	addiw	a3,a3,1
    80400178:	02b777bb          	remuw	a5,a4,a1
    8040017c:	1782                	slli	a5,a5,0x20
    8040017e:	9381                	srli	a5,a5,0x20
    80400180:	97c2                	add	a5,a5,a6
    80400182:	0007c783          	lbu	a5,0(a5)
    80400186:	00f60023          	sb	a5,0(a2)
    8040018a:	0007079b          	sext.w	a5,a4
    8040018e:	02b7573b          	divuw	a4,a4,a1
    80400192:	0605                	addi	a2,a2,1
    80400194:	feb7f0e3          	bgeu	a5,a1,80400174 <printint+0x2a>
    80400198:	02054e63          	bltz	a0,804001d4 <printint+0x8a>
    8040019c:	0206c663          	bltz	a3,804001c8 <printint+0x7e>
    804001a0:	fd040793          	addi	a5,s0,-48
    804001a4:	00d784b3          	add	s1,a5,a3
    804001a8:	fff78913          	addi	s2,a5,-1
    804001ac:	9936                	add	s2,s2,a3
    804001ae:	1682                	slli	a3,a3,0x20
    804001b0:	9281                	srli	a3,a3,0x20
    804001b2:	40d90933          	sub	s2,s2,a3
    804001b6:	fff4c503          	lbu	a0,-1(s1)
    804001ba:	00000097          	auipc	ra,0x0
    804001be:	f70080e7          	jalr	-144(ra) # 8040012a <putc>
    804001c2:	14fd                	addi	s1,s1,-1
    804001c4:	ff2499e3          	bne	s1,s2,804001b6 <printint+0x6c>
    804001c8:	70a2                	ld	ra,40(sp)
    804001ca:	7402                	ld	s0,32(sp)
    804001cc:	64e2                	ld	s1,24(sp)
    804001ce:	6942                	ld	s2,16(sp)
    804001d0:	6145                	addi	sp,sp,48
    804001d2:	8082                	ret
    804001d4:	fe068793          	addi	a5,a3,-32
    804001d8:	008786b3          	add	a3,a5,s0
    804001dc:	02d00793          	li	a5,45
    804001e0:	fef68823          	sb	a5,-16(a3)
    804001e4:	0028869b          	addiw	a3,a7,2
    804001e8:	bf55                	j	8040019c <printint+0x52>

00000000804001ea <vprintf>:
    804001ea:	7159                	addi	sp,sp,-112
    804001ec:	f486                	sd	ra,104(sp)
    804001ee:	f0a2                	sd	s0,96(sp)
    804001f0:	eca6                	sd	s1,88(sp)
    804001f2:	e8ca                	sd	s2,80(sp)
    804001f4:	e4ce                	sd	s3,72(sp)
    804001f6:	e0d2                	sd	s4,64(sp)
    804001f8:	fc56                	sd	s5,56(sp)
    804001fa:	f85a                	sd	s6,48(sp)
    804001fc:	f45e                	sd	s7,40(sp)
    804001fe:	f062                	sd	s8,32(sp)
    80400200:	ec66                	sd	s9,24(sp)
    80400202:	e86a                	sd	s10,16(sp)
    80400204:	e46e                	sd	s11,8(sp)
    80400206:	1880                	addi	s0,sp,112
    80400208:	c90d                	beqz	a0,8040023a <vprintf+0x50>
    8040020a:	8a2a                	mv	s4,a0
    8040020c:	892e                	mv	s2,a1
    8040020e:	00054503          	lbu	a0,0(a0)
    80400212:	4481                	li	s1,0
    80400214:	14050e63          	beqz	a0,80400370 <vprintf+0x186>
    80400218:	02500a93          	li	s5,37
    8040021c:	4bd9                	li	s7,22
    8040021e:	00000c17          	auipc	s8,0x0
    80400222:	2bac0c13          	addi	s8,s8,698 # 804004d8 <main+0x9e>
    80400226:	00000d17          	auipc	s10,0x0
    8040022a:	2aad0d13          	addi	s10,s10,682 # 804004d0 <main+0x96>
    8040022e:	4cc1                	li	s9,16
    80400230:	00000b17          	auipc	s6,0x0
    80400234:	308b0b13          	addi	s6,s6,776 # 80400538 <digits>
    80400238:	a025                	j	80400260 <vprintf+0x76>
    8040023a:	00000517          	auipc	a0,0x0
    8040023e:	28650513          	addi	a0,a0,646 # 804004c0 <main+0x86>
    80400242:	00000097          	auipc	ra,0x0
    80400246:	eb0080e7          	jalr	-336(ra) # 804000f2 <panic>
    8040024a:	00000097          	auipc	ra,0x0
    8040024e:	ee0080e7          	jalr	-288(ra) # 8040012a <putc>
    80400252:	2485                	addiw	s1,s1,1
    80400254:	009a07b3          	add	a5,s4,s1
    80400258:	0007c503          	lbu	a0,0(a5)
    8040025c:	10050a63          	beqz	a0,80400370 <vprintf+0x186>
    80400260:	ff5515e3          	bne	a0,s5,8040024a <vprintf+0x60>
    80400264:	2485                	addiw	s1,s1,1
    80400266:	009a07b3          	add	a5,s4,s1
    8040026a:	0007c983          	lbu	s3,0(a5)
    8040026e:	10098163          	beqz	s3,80400370 <vprintf+0x186>
    80400272:	0d598c63          	beq	s3,s5,8040034a <vprintf+0x160>
    80400276:	f9e9879b          	addiw	a5,s3,-98
    8040027a:	0ff7f793          	zext.b	a5,a5
    8040027e:	0cfbec63          	bltu	s7,a5,80400356 <vprintf+0x16c>
    80400282:	f9e9879b          	addiw	a5,s3,-98
    80400286:	0ff7f713          	zext.b	a4,a5
    8040028a:	0cebe663          	bltu	s7,a4,80400356 <vprintf+0x16c>
    8040028e:	00271793          	slli	a5,a4,0x2
    80400292:	97e2                	add	a5,a5,s8
    80400294:	439c                	lw	a5,0(a5)
    80400296:	97e2                	add	a5,a5,s8
    80400298:	8782                	jr	a5
    8040029a:	00890993          	addi	s3,s2,8
    8040029e:	4605                	li	a2,1
    804002a0:	4589                	li	a1,2
    804002a2:	00092503          	lw	a0,0(s2)
    804002a6:	00000097          	auipc	ra,0x0
    804002aa:	ea4080e7          	jalr	-348(ra) # 8040014a <printint>
    804002ae:	894e                	mv	s2,s3
    804002b0:	b74d                	j	80400252 <vprintf+0x68>
    804002b2:	00890993          	addi	s3,s2,8
    804002b6:	4605                	li	a2,1
    804002b8:	45a9                	li	a1,10
    804002ba:	00092503          	lw	a0,0(s2)
    804002be:	00000097          	auipc	ra,0x0
    804002c2:	e8c080e7          	jalr	-372(ra) # 8040014a <printint>
    804002c6:	894e                	mv	s2,s3
    804002c8:	b769                	j	80400252 <vprintf+0x68>
    804002ca:	00890993          	addi	s3,s2,8
    804002ce:	4605                	li	a2,1
    804002d0:	85e6                	mv	a1,s9
    804002d2:	00092503          	lw	a0,0(s2)
    804002d6:	00000097          	auipc	ra,0x0
    804002da:	e74080e7          	jalr	-396(ra) # 8040014a <printint>
    804002de:	894e                	mv	s2,s3
    804002e0:	bf8d                	j	80400252 <vprintf+0x68>
    804002e2:	00890d93          	addi	s11,s2,8
    804002e6:	00093983          	ld	s3,0(s2)
    804002ea:	856a                	mv	a0,s10
    804002ec:	00000097          	auipc	ra,0x0
    804002f0:	dda080e7          	jalr	-550(ra) # 804000c6 <puts>
    804002f4:	8966                	mv	s2,s9
    804002f6:	03c9d793          	srli	a5,s3,0x3c
    804002fa:	97da                	add	a5,a5,s6
    804002fc:	0007c503          	lbu	a0,0(a5)
    80400300:	00000097          	auipc	ra,0x0
    80400304:	e2a080e7          	jalr	-470(ra) # 8040012a <putc>
    80400308:	0992                	slli	s3,s3,0x4
    8040030a:	397d                	addiw	s2,s2,-1
    8040030c:	fe0915e3          	bnez	s2,804002f6 <vprintf+0x10c>
    80400310:	896e                	mv	s2,s11
    80400312:	b781                	j	80400252 <vprintf+0x68>
    80400314:	00890993          	addi	s3,s2,8
    80400318:	00094503          	lbu	a0,0(s2)
    8040031c:	00000097          	auipc	ra,0x0
    80400320:	e0e080e7          	jalr	-498(ra) # 8040012a <putc>
    80400324:	894e                	mv	s2,s3
    80400326:	b735                	j	80400252 <vprintf+0x68>
    80400328:	00890993          	addi	s3,s2,8
    8040032c:	00093903          	ld	s2,0(s2)
    80400330:	00094503          	lbu	a0,0(s2)
    80400334:	cd05                	beqz	a0,8040036c <vprintf+0x182>
    80400336:	00000097          	auipc	ra,0x0
    8040033a:	df4080e7          	jalr	-524(ra) # 8040012a <putc>
    8040033e:	0905                	addi	s2,s2,1
    80400340:	00094503          	lbu	a0,0(s2)
    80400344:	f96d                	bnez	a0,80400336 <vprintf+0x14c>
    80400346:	894e                	mv	s2,s3
    80400348:	b729                	j	80400252 <vprintf+0x68>
    8040034a:	8556                	mv	a0,s5
    8040034c:	00000097          	auipc	ra,0x0
    80400350:	dde080e7          	jalr	-546(ra) # 8040012a <putc>
    80400354:	bdfd                	j	80400252 <vprintf+0x68>
    80400356:	8556                	mv	a0,s5
    80400358:	00000097          	auipc	ra,0x0
    8040035c:	dd2080e7          	jalr	-558(ra) # 8040012a <putc>
    80400360:	854e                	mv	a0,s3
    80400362:	00000097          	auipc	ra,0x0
    80400366:	dc8080e7          	jalr	-568(ra) # 8040012a <putc>
    8040036a:	b5e5                	j	80400252 <vprintf+0x68>
    8040036c:	894e                	mv	s2,s3
    8040036e:	b5d5                	j	80400252 <vprintf+0x68>
    80400370:	70a6                	ld	ra,104(sp)
    80400372:	7406                	ld	s0,96(sp)
    80400374:	64e6                	ld	s1,88(sp)
    80400376:	6946                	ld	s2,80(sp)
    80400378:	69a6                	ld	s3,72(sp)
    8040037a:	6a06                	ld	s4,64(sp)
    8040037c:	7ae2                	ld	s5,56(sp)
    8040037e:	7b42                	ld	s6,48(sp)
    80400380:	7ba2                	ld	s7,40(sp)
    80400382:	7c02                	ld	s8,32(sp)
    80400384:	6ce2                	ld	s9,24(sp)
    80400386:	6d42                	ld	s10,16(sp)
    80400388:	6da2                	ld	s11,8(sp)
    8040038a:	6165                	addi	sp,sp,112
    8040038c:	8082                	ret

000000008040038e <printf>:
    8040038e:	711d                	addi	sp,sp,-96
    80400390:	ec06                	sd	ra,24(sp)
    80400392:	e822                	sd	s0,16(sp)
    80400394:	1000                	addi	s0,sp,32
    80400396:	e40c                	sd	a1,8(s0)
    80400398:	e810                	sd	a2,16(s0)
    8040039a:	ec14                	sd	a3,24(s0)
    8040039c:	f018                	sd	a4,32(s0)
    8040039e:	f41c                	sd	a5,40(s0)
    804003a0:	03043823          	sd	a6,48(s0)
    804003a4:	03143c23          	sd	a7,56(s0)
    804003a8:	00840593          	addi	a1,s0,8
    804003ac:	feb43423          	sd	a1,-24(s0)
    804003b0:	00000097          	auipc	ra,0x0
    804003b4:	e3a080e7          	jalr	-454(ra) # 804001ea <vprintf>
    804003b8:	60e2                	ld	ra,24(sp)
    804003ba:	6442                	ld	s0,16(sp)
    804003bc:	6125                	addi	sp,sp,96
    804003be:	8082                	ret

00000000804003c0 <sys_call>:
    804003c0:	1141                	addi	sp,sp,-16
    804003c2:	e422                	sd	s0,8(sp)
    804003c4:	0800                	addi	s0,sp,16
    804003c6:	88aa                	mv	a7,a0
    804003c8:	6188                	ld	a0,0(a1)
    804003ca:	01058793          	addi	a5,a1,16
    804003ce:	6390                	ld	a2,0(a5)
    804003d0:	05a1                	addi	a1,a1,8
    804003d2:	618c                	ld	a1,0(a1)
    804003d4:	00000073          	ecall
    804003d8:	852a                	mv	a0,a0
    804003da:	6422                	ld	s0,8(sp)
    804003dc:	0141                	addi	sp,sp,16
    804003de:	8082                	ret

00000000804003e0 <sys_write>:
    804003e0:	7179                	addi	sp,sp,-48
    804003e2:	f406                	sd	ra,40(sp)
    804003e4:	f022                	sd	s0,32(sp)
    804003e6:	1800                	addi	s0,sp,48
    804003e8:	4785                	li	a5,1
    804003ea:	fcf43c23          	sd	a5,-40(s0)
    804003ee:	feb43023          	sd	a1,-32(s0)
    804003f2:	fec43423          	sd	a2,-24(s0)
    804003f6:	fd840593          	addi	a1,s0,-40
    804003fa:	04000513          	li	a0,64
    804003fe:	00000097          	auipc	ra,0x0
    80400402:	fc2080e7          	jalr	-62(ra) # 804003c0 <sys_call>
    80400406:	70a2                	ld	ra,40(sp)
    80400408:	7402                	ld	s0,32(sp)
    8040040a:	6145                	addi	sp,sp,48
    8040040c:	8082                	ret

000000008040040e <sys_exit>:
    8040040e:	7179                	addi	sp,sp,-48
    80400410:	f406                	sd	ra,40(sp)
    80400412:	f022                	sd	s0,32(sp)
    80400414:	1800                	addi	s0,sp,48
    80400416:	fca43c23          	sd	a0,-40(s0)
    8040041a:	fe043023          	sd	zero,-32(s0)
    8040041e:	fe043423          	sd	zero,-24(s0)
    80400422:	fd840593          	addi	a1,s0,-40
    80400426:	05d00513          	li	a0,93
    8040042a:	00000097          	auipc	ra,0x0
    8040042e:	f96080e7          	jalr	-106(ra) # 804003c0 <sys_call>
    80400432:	70a2                	ld	ra,40(sp)
    80400434:	7402                	ld	s0,32(sp)
    80400436:	6145                	addi	sp,sp,48
    80400438:	8082                	ret

000000008040043a <main>:
    8040043a:	1141                	addi	sp,sp,-16
    8040043c:	e406                	sd	ra,8(sp)
    8040043e:	e022                	sd	s0,0(sp)
    80400440:	0800                	addi	s0,sp,16
    80400442:	00000517          	auipc	a0,0x0
    80400446:	10e50513          	addi	a0,a0,270 # 80400550 <digits+0x18>
    8040044a:	00000097          	auipc	ra,0x0
    8040044e:	f44080e7          	jalr	-188(ra) # 8040038e <printf>
    80400452:	000f45b7          	lui	a1,0xf4
    80400456:	24058593          	addi	a1,a1,576 # f4240 <_start-0x8030bdc0>
    8040045a:	00000517          	auipc	a0,0x0
    8040045e:	10650513          	addi	a0,a0,262 # 80400560 <digits+0x28>
    80400462:	00000097          	auipc	ra,0x0
    80400466:	f2c080e7          	jalr	-212(ra) # 8040038e <printf>
    8040046a:	4501                	li	a0,0
    8040046c:	60a2                	ld	ra,8(sp)
    8040046e:	6402                	ld	s0,0(sp)
    80400470:	0141                	addi	sp,sp,16
    80400472:	8082                	ret
